; Function Attrs: nounwind uwtable
define i64 @dt_datetime_exif_to_gtimespan(ptr noundef %0) local_unnamed_addr #0 {
  %2 = alloca %struct.dt_datetime_t, align 4
  %.not = icmp eq ptr %0, null
  br i1 %.not, label %31, label %3

3:                                                ; preds = %1
  %4 = load ptr, ptr getelementptr inbounds nuw (i8, ptr @darktable, i64 3328), align 8, !tbaa !6
  call void @llvm.lifetime.start.p0(i64 28, ptr nonnull %2) #7
  %5 = call i32 @dt_datetime_exif_to_numbers(ptr noundef nonnull %2, ptr noundef nonnull %0)
  %.not.i = icmp eq i32 %5, 0
  br i1 %.not.i, label %dt_datetime_exif_to_gdatetime.exit.thread, label %6

dt_datetime_exif_to_gdatetime.exit.thread:        ; preds = %3
  call void @llvm.lifetime.end.p0(i64 28, ptr nonnull %2) #7
  br label %31

6:                                                ; preds = %3
  %7 = load i32, ptr %2, align 4, !tbaa !49
  %8 = getelementptr inbounds nuw i8, ptr %2, i64 4
  %9 = load i32, ptr %8, align 4, !tbaa !51
  %10 = getelementptr inbounds nuw i8, ptr %2, i64 8
  %11 = load i32, ptr %10, align 4, !tbaa !52
  %12 = getelementptr inbounds nuw i8, ptr %2, i64 12
  %13 = load i32, ptr %12, align 4, !tbaa !53
  %14 = getelementptr inbounds nuw i8, ptr %2, i64 16
  %15 = load i32, ptr %14, align 4, !tbaa !54
  %16 = getelementptr inbounds nuw i8, ptr %2, i64 20
  %17 = load i32, ptr %16, align 4, !tbaa !55
  %18 = sitofp i32 %17 to double
  %19 = call ptr @g_date_time_new(ptr noundef %4, i32 noundef %7, i32 noundef %9, i32 noundef %11, i32 noundef %13, i32 noundef %15, double noundef %18) #7
  %20 = icmp ne ptr %19, null
  %21 = getelementptr inbounds nuw i8, ptr %2, i64 24
  %22 = load i32, ptr %21, align 4
  %23 = icmp ne i32 %22, 0
  %or.cond.i = select i1 %20, i1 %23, i1 false
  br i1 %or.cond.i, label %24, label %dt_datetime_exif_to_gdatetime.exit

24:                                               ; preds = %6
  %25 = mul nsw i32 %22, 1000
  %26 = sext i32 %25 to i64
  %27 = call ptr @g_date_time_add(ptr noundef nonnull %19, i64 noundef %26) #7
  call void @g_date_time_unref(ptr noundef nonnull %19) #7
  br label %dt_datetime_exif_to_gdatetime.exit

dt_datetime_exif_to_gdatetime.exit:               ; preds = %6, %24
  %.1.i = phi ptr [ %27, %24 ], [ %19, %6 ]
  call void @llvm.lifetime.end.p0(i64 28, ptr nonnull %2) #7
  %.not10 = icmp eq ptr %.1.i, null
  br i1 %.not10, label %31, label %28

28:                                               ; preds = %dt_datetime_exif_to_gdatetime.exit
  %29 = load ptr, ptr getelementptr inbounds nuw (i8, ptr @darktable, i64 3336), align 8, !tbaa !48
  %30 = call i64 @g_date_time_difference(ptr noundef nonnull %.1.i, ptr noundef %29) #7
  call void @g_date_time_unref(ptr noundef nonnull %.1.i) #7
  br label %31

31:                                               ; preds = %dt_datetime_exif_to_gdatetime.exit.thread, %dt_datetime_exif_to_gdatetime.exit, %28, %1
  %.0 = phi i64 [ 0, %1 ], [ %30, %28 ], [ 0, %dt_datetime_exif_to_gdatetime.exit ], [ 0, %dt_datetime_exif_to_gdatetime.exit.thread ]
  ret i64 %.0
}